Certificate:
    Data:
        Version: 3 (0x2)
        Serial Number: 1 (0x1)
        Signature Algorithm: sha256WithRSAEncryption
        Issuer: C=FR, ST=IDF, L=IVRY, O=ESIEA, CN=TOLAZZI/emailAddress=tolazzi@et.esiea.fr
        Validity
            Not Before: Dec 12 15:33:59 2022 GMT
            Not After : Dec 12 15:33:59 2023 GMT
        Subject: C=FR, ST=IDF, O=ESIEA/emailAddress=tolazzi@et.esiea.fr
        Subject Public Key Info:
            Public Key Algorithm: rsaEncryption
                RSA Public-Key: (2048 bit)
                Modulus:
                    00:c2:eb:f7:28:01:99:73:3a:75:c6:6d:57:4a:ca:
                    c3:72:86:42:cc:c2:50:73:d0:3c:e6:46:3f:1a:13:
                    53:3a:51:c9:f5:37:37:cc:31:18:f5:c0:39:f4:e4:
                    a3:ae:ff:c7:e1:96:28:c2:dc:bb:21:a9:df:66:96:
                    3c:4d:e6:eb:cd:50:19:d5:06:e2:b9:39:40:43:02:
                    b2:ce:79:e7:84:7d:fa:f9:1a:25:fe:a0:ff:43:ec:
                    49:a0:4e:d3:6f:c0:55:fb:0e:19:74:04:a7:91:ba:
                    8d:46:93:fc:b1:0e:b2:a3:b7:42:0c:02:d7:28:72:
                    98:2e:b6:53:26:fe:6a:80:5a:21:a7:05:99:9e:e9:
                    e6:ad:e8:36:d8:3b:b1:b2:58:3f:56:14:8f:18:53:
                    90:7b:b3:f8:a5:b9:11:56:19:9c:40:78:b8:be:6f:
                    06:88:4d:32:b9:4f:6a:0a:d6:db:3e:c6:f4:0a:a9:
                    75:85:f8:03:4d:81:02:71:5d:43:11:67:3c:83:1d:
                    57:f9:ca:8f:05:04:1b:df:5b:1a:b4:3f:6f:d4:80:
                    cf:fa:8b:63:04:e5:52:07:f7:e8:f9:f0:6f:1a:53:
                    97:c0:05:86:2b:c4:98:7f:b2:b9:81:21:04:d3:4c:
                    64:27:8c:a7:41:b7:a5:3b:32:86:32:e3:ed:97:53:
                    d4:fd
                Exponent: 65537 (0x10001)
        X509v3 extensions:
            X509v3 Basic Constraints: 
                CA:FALSE
            Netscape Comment: 
                OpenSSL Generated Certificate
            X509v3 Subject Key Identifier: 
                16:0D:17:9D:85:C5:77:EE:C1:A6:DC:D3:F3:52:B3:79:DD:DA:3D:EC
            X509v3 Authority Key Identifier: 
                keyid:54:B0:97:AF:AA:E9:BC:24:7C:EC:34:5E:7E:EC:AB:85:D0:CE:6B:64

    Signature Algorithm: sha256WithRSAEncryption
         0c:f8:13:83:3d:ff:0d:c1:53:bd:c9:57:eb:1f:33:49:b4:01:
         79:b0:2f:93:25:af:98:c1:2c:4a:06:29:ee:37:00:3e:db:3d:
         42:fa:e9:04:40:fb:d9:2b:a2:09:66:01:7e:ae:1f:a0:51:2f:
         55:fb:34:36:a7:df:8b:e8:a0:20:88:7b:a3:d2:1b:92:9c:62:
         03:89:29:8c:dd:e6:0d:43:d4:aa:10:1d:4e:b1:a5:84:b0:74:
         25:d5:1e:21:5c:6f:65:b5:20:b0:7b:a5:60:01:81:ab:d3:40:
         74:22:76:02:00:fd:d0:dc:c2:d8:69:00:e9:b1:44:e8:1f:a5:
         ef:7e:a4:42:36:34:ec:c5:90:1b:4d:ca:2d:ef:e3:ce:07:21:
         81:55:e4:98:01:b8:96:0e:81:a7:ff:ca:47:fd:f8:42:7b:da:
         13:74:4a:b4:6e:e6:76:86:db:8c:cf:df:7c:8d:49:04:04:9e:
         83:e9:9a:5b:78:33:b0:37:be:08:ae:4b:33:53:83:22:2e:0d:
         0c:10:dc:d3:28:36:fd:55:e8:2b:3c:c2:08:82:fb:10:9f:38:
         dc:b8:a3:e0:e1:0d:db:9f:32:fa:49:bc:dd:25:be:1a:05:bf:
         85:95:ac:c9:2b:cb:e2:46:0e:47:0b:19:da:da:20:33:8f:62:
         f4:c9:be:ef:b9:06:57:84:84:41:e0:e4:de:ee:d0:d1:90:fd:
         71:6f:96:4d:f0:22:db:c0:ec:51:2d:20:23:8c:39:4a:a3:c7:
         62:9a:99:ad:92:a4:44:79:cd:2b:a9:77:e6:d1:2c:00:c0:a7:
         46:b6:08:07:7b:c9:c0:2c:d4:9f:e3:3d:0f:b0:73:d5:6a:1a:
         4a:8c:48:79:93:73:5e:db:c0:ee:f9:ac:5a:b2:5a:0d:cb:b2:
         1a:ce:92:49:20:d2:57:5d:72:85:d9:a0:42:1a:9e:88:fa:99:
         bb:1f:78:f5:34:2e:e3:2d:a9:70:cd:0c:34:c2:95:98:9f:a6:
         a0:cc:57:29:79:0e:f3:5c:b9:59:70:44:f6:46:de:ad:74:d6:
         d5:15:ae:4a:3d:05:17:d4:53:47:8b:72:13:4b:a0:91:16:79:
         f0:aa:55:8c:03:8f:ae:3c:5f:c8:06:c6:11:a3:45:7d:c5:ed:
         8a:9b:3e:af:7a:e8:6b:52:3c:5e:af:e6:33:05:4f:bd:1c:8a:
         89:d0:1d:92:04:f8:d4:a3:a8:2c:f8:a0:cc:16:72:66:56:cb:
         7c:77:99:3c:04:14:4f:92:bb:58:d4:8c:74:78:2d:29:a4:bf:
         00:96:87:59:86:f6:79:6f:95:b5:b0:f8:e6:a0:64:9f:b4:f8:
         03:7c:72:c4:e2:a4:64:bc
-----BEGIN CERTIFICATE-----
MIIEtTCCAp2gAwIBAgIBATANBgkqhkiG9w0BAQsFADBwMQswCQYDVQQGEwJGUjEM
MAoGA1UECAwDSURGMQ0wCwYDVQQHDARJVlJZMQ4wDAYDVQQKDAVFU0lFQTEQMA4G
A1UEAwwHVE9MQVpaSTEiMCAGCSqGSIb3DQEJARYTdG9sYXp6aUBldC5lc2llYS5m
cjAeFw0yMjEyMTIxNTMzNTlaFw0yMzEyMTIxNTMzNTlaME8xCzAJBgNVBAYTAkZS
MQwwCgYDVQQIDANJREYxDjAMBgNVBAoMBUVTSUVBMSIwIAYJKoZIhvcNAQkBFhN0
b2xhenppQGV0LmVzaWVhLmZyMIIBIjANBgkqhkiG9w0BAQEFAAOCAQ8AMIIBCgKC
AQEAwuv3KAGZczp1xm1XSsrDcoZCzMJQc9A85kY/GhNTOlHJ9Tc3zDEY9cA59OSj
rv/H4ZYowty7IanfZpY8TebrzVAZ1QbiuTlAQwKyznnnhH36+Rol/qD/Q+xJoE7T
b8BV+w4ZdASnkbqNRpP8sQ6yo7dCDALXKHKYLrZTJv5qgFohpwWZnunmreg22Dux
slg/VhSPGFOQe7P4pbkRVhmcQHi4vm8GiE0yuU9qCtbbPsb0Cql1hfgDTYECcV1D
EWc8gx1X+cqPBQQb31satD9v1IDP+otjBOVSB/fo+fBvGlOXwAWGK8SYf7K5gSEE
00xkJ4ynQbelOzKGMuPtl1PU/QIDAQABo3sweTAJBgNVHRMEAjAAMCwGCWCGSAGG
+EIBDQQfFh1PcGVuU1NMIEdlbmVyYXRlZCBDZXJ0aWZpY2F0ZTAdBgNVHQ4EFgQU
Fg0XnYXFd+7BptzT81Kzed3aPewwHwYDVR0jBBgwFoAUVLCXr6rpvCR87DRefuyr
hdDOa2QwDQYJKoZIhvcNAQELBQADggIBAAz4E4M9/w3BU73JV+sfM0m0AXmwL5Ml
r5jBLEoGKe43AD7bPUL66QRA+9kroglmAX6uH6BRL1X7NDan34vooCCIe6PSG5Kc
YgOJKYzd5g1D1KoQHU6xpYSwdCXVHiFcb2W1ILB7pWABgavTQHQidgIA/dDcwthp
AOmxROgfpe9+pEI2NOzFkBtNyi3v484HIYFV5JgBuJYOgaf/ykf9+EJ72hN0SrRu
5naG24zP33yNSQQEnoPpmlt4M7A3vgiuSzNTgyIuDQwQ3NMoNv1V6Cs8wgiC+xCf
ONy4o+DhDdufMvpJvN0lvhoFv4WVrMkry+JGDkcLGdraIDOPYvTJvu+5BleEhEHg
5N7u0NGQ/XFvlk3wItvA7FEtICOMOUqjx2Kama2SpER5zSupd+bRLADAp0a2CAd7
ycAs1J/jPQ+wc9VqGkqMSHmTc17bwO75rFqyWg3LshrOkkkg0lddcoXZoEIanoj6
mbsfePU0LuMtqXDNDDTClZifpqDMVyl5DvNcuVlwRPZG3q101tUVrko9BRfUU0eL
chNLoJEWefCqVYwDj648X8gGxhGjRX3F7YqbPq966GtSPF6v5jMFT70cionQHZIE
+NSjqCz4oMwWcmZWy3x3mTwEFE+Su1jUjHR4LSmkvwCWh1mG9nlvlbWw+OagZJ+0
+AN8csTipGS8
-----END CERTIFICATE-----
